(iplotfw.plotlog
PlotLog
p1
(dp2
S'_v'
p3
I01
sS'cutstring'
p4
S'((((((((int_muonCount__STPOLSEL2.obj==1) && (floats_goodSignalMuonsNTupleProducer_relIso_STPOLSEL2.obj[0]<0.12)) && (int_looseVetoMuCount__STPOLSEL2.obj==0)) && (int_looseVetoEleCount__STPOLSEL2.obj==0)) && (double_muAndMETMT__STPOLSEL2.obj > 50)) && ((floats_recoTopNTupleProducer_Mass_STPOLSEL2.obj[0]>130) && (floats_recoTopNTupleProducer_Mass_STPOLSEL2.obj[0]<220))) && ((floats_goodJetsNTupleProducer_Pt_STPOLSEL2.obj[0]>40) && (floats_goodJetsNTupleProducer_Pt_STPOLSEL2.obj[1]>40))) && (abs(floats_goodJetsNTupleProducer_Eta_STPOLSEL2.obj[0])<4.5 && abs(floats_goodJetsNTupleProducer_Eta_STPOLSEL2.obj[1])<4.5)) && ((int_lightJetCount__STPOLSEL2.obj==1) && (int_bJetCount__STPOLSEL2.obj==1))'
p5
sS'_variables'
p6
(dp7
S'int'
p8
(dp9
S'title'
p10
S'Integrated events'
p11
ssS'filled'
p12
(dp13
g10
S'Events filled'
p14
sssS'cuts'
p15
(lp16
S''
asS'_processes'
p17
(dp18
sS'_params'
p19
(dp20
S'HT bins'
p21
I20
sS'MC binmax'
p22
F3034.74462890625
sS'HT max'
p23
I1
sS'Kolmogorov test'
p24
F0.046939524130970182
sS'Chi2/ndf'
p25
F40.212745575097046
sS'HT min'
p26
I-1
sS'Variable'
p27
S'double_cosTheta_cosThetaLightJet_STPOLSEL2.obj'
p28
ssb.